c__builtin__
set
p1
((lp2
(S'Cube23'
S'-527.39'
S'-1324.81'
S'270.00'
tp3
a(S'Cube26'
S'-500.69'
S'558.08'
S'280.87'
tp4
a(S'Cube17'
S'860.90'
S'-677.67'
S'223.08'
tp5
a(S'Wall1'
S'1191.23'
S'-0.00'
S'358.61'
tp6
a(S'Cube22'
S'170.64'
S'-1324.81'
S'270.00'
tp7
a(S'AtmosphericFog'
S'-194.51'
S'156.97'
S'1024.10'
tp8
a(S'Cube25'
S'-1248.94'
S'-60.05'
S'270.00'
tp9
a(S'RecastNavMesh-Default'
S'0.00'
S'0.00'
S'0.00'
tp10
a(S'PostProcessVolume'
S'-243.90'
S'6.16'
S'120.00'
tp11
a(S'Wall5'
S'-259.53'
S'-1950.09'
S'369.10'
tp12
a(S'NavigationMeshBoundsVolume'
S'-240.00'
S'9.24'
S'120.00'
tp13
a(S'Cube31'
S'892.39'
S'578.59'
S'270.00'
tp14
a(S'Cube14'
S'197.95'
S'588.11'
S'336.49'
tp15
a(S'Cube10'
S'-1228.07'
S'606.71'
S'332.08'
tp16
a(S'SkyLight'
S'30.16'
S'7.71'
S'20.00'
tp17
a(S'TemplateLabel'
S'-870.30'
S'-2.00'
S'170.20'
tp18
a(S'Floor'
S'-265.67'
S'-0.00'
S'117.44'
tp19
a(S'Cube'
S'-519.77'
S'-670.86'
S'350.33'
tp20
a(S'Cube8'
S'-1228.07'
S'-673.81'
S'360.53'
tp21
a(S'NetworkPlayerStart'
S'710.00'
S'-86.44'
S'202.00'
tp22
a(S'LightmassImportanceVolume'
S'-129.81'
S'-110.01'
S'1537.71'
tp23
a(S'Wall2'
S'-1711.36'
S'-0.01'
S'318.12'
tp24
a(S'Cube20'
S'860.90'
S'-74.81'
S'270.00'
tp25
a(S'Cube28'
S'-1227.51'
S'1395.02'
S'270.00'
tp26
a(S'SphereReflectionCapture'
S'-48.00'
S'-32.00'
S'328.00'
tp27
a(S'Cube21'
S'170.64'
S'-74.81'
S'270.00'
tp28
a(S'Cube27'
S'-501.69'
S'1395.02'
S'270.00'
tp29
a(S'TopDownCharacter'
S'-537.73'
S'-30.00'
S'268.54'
tp30
a(S'Light Source'
S'100.00'
S'-200.00'
S'570.00'
tp31
a(S'SkySphereBlueprint'
S'0.00'
S'0.00'
S'0.00'
tp32
a(S'Cube29'
S'176.13'
S'1395.02'
S'270.00'
tp33
a(S'Cube4'
S'863.79'
S'-1310.39'
S'270.00'
tp34
a(S'Cube30'
S'909.05'
S'1395.02'
S'270.00'
tp35
a(S'Cube24'
S'-1249.39'
S'-1324.81'
S'287.10'
tp36
a(S'Wall3'
S'-259.53'
S'1950.32'
S'369.10'
tp37
a(S'Cube2'
S'178.37'
S'-670.86'
S'327.74'
tp38
atRp39
.